LIBRARY "SeaUI.dll"
EXPORTS
??0_CBmpInfo@_SEAUIWINDOW@@QAE@XZ
??0_CBurshInfo@_SEAUIWINDOW@@QAE@XZ
??0_CFont@@QAE@XZ
??0_CFrameInfo@_SEAUIWINDOW@@QAE@XZ
??0_CRoundrectInfo@_SEAUIWINDOW@@QAE@XZ
??0_SEAUIWINDOW@@QAE@ABV0@@Z
??0_SEAUIWINDOW@@QAE@XZ
??0_SeaUIBkinfo@_SEAUIWINDOW@@QAE@XZ
??1_CBmpInfo@_SEAUIWINDOW@@QAE@XZ
??1_CBurshInfo@_SEAUIWINDOW@@QAE@XZ
??1_CFont@@QAE@XZ
??1_CFrameInfo@_SEAUIWINDOW@@QAE@XZ
??1_CRoundrectInfo@_SEAUIWINDOW@@QAE@XZ
??1_SEAUIWINDOW@@QAE@XZ
??1_SeaUIBkinfo@_SEAUIWINDOW@@QAE@XZ
??4_CBmpInfo@_SEAUIWINDOW@@QAEAAV01@ABV01@@Z
??4_CBurshInfo@_SEAUIWINDOW@@QAEAAV01@ABV01@@Z
??4_CFont@@QAEAAV0@ABV0@@Z
??4_CFrameInfo@_SEAUIWINDOW@@QAEAAV01@ABV01@@Z
??4_CRoundrectInfo@_SEAUIWINDOW@@QAEAAV01@ABV01@@Z
??4_SEAUIWINDOW@@QAEAAV0@ABV0@@Z
??4_SeaUIBkinfo@_SEAUIWINDOW@@QAEAAV01@ABV01@@Z
?AllowPainting@_SEAUIWINDOW@@QAEX_N@Z
?ButtonAnimationInitialize@_SEAUIWINDOW@@QAEXHH@Z
?ButtonDownAnimation@_SEAUIWINDOW@@QAEXXZ
?ButtonHitAnimation@_SEAUIWINDOW@@QAEX_N@Z
?ButtonUpAnimationPlay@_SEAUIWINDOW@@QAEXXZ
?CoordinateLock@_SEAUIWINDOW@@QAEXXZ
?CreateSeaUIWindow@_SEAUIWINDOW@@QAE_NPAUHWND__@@QADJHHHHPAUHMENU__@@@Z
?DrawFrame@_SEAUIWINDOW@@QAEXPAUHDC__@@@Z
?GetHwnd@_SEAUIWINDOW@@QAEPAUHWND__@@XZ
?GetText@_SEAUIWINDOW@@QAEPADXZ
?GetThreadState@_SEAUIWINDOW@@QAE_NXZ
?Initialization@@YAPAV_SEAUIWINDOW@@J@Z
?LockPosition@_SEAUIWINDOW@@QAEXXZ
?MouseHoverAnimation@_SEAUIWINDOW@@QAEX_N@Z
?MouseHoverAnimationPlay@_SEAUIWINDOW@@QAEXXZ
?MouseLeaveAnimation@_SEAUIWINDOW@@QAEX_N@Z
?MouseLeaveAnimationPlay@_SEAUIWINDOW@@QAEXXZ
?OnSeaUIWindowPaint@_SEAUIWINDOW@@QAEXPAUHDC__@@@Z
?Output@_SEAUIWINDOW@@QAEXHHHHQADHHK@Z
?Output@_SEAUIWINDOW@@QAEXHHHHV?$basic_string@DU?$char_traits@D@std@@V?$allocator@D@2@@std@@HHK@Z
?Password@_SEAUIWINDOW@@QAEX_N@Z
?Printf@_SEAUIWINDOW@@QAAXHHQADZZ
?RemoveFrame@_SEAUIWINDOW@@QAEXXZ
?RemoveWindow@_SEAUIWINDOW@@QAEXXZ
?Roundrect@_SEAUIWINDOW@@QAEXHH@Z
?SetAlphaAnimation@_SEAUIWINDOW@@QAEXHHH@Z
?SetAlphaValue@_SEAUIWINDOW@@QAEXH@Z
?SetAnimationStyle@_SEAUIWINDOW@@QAEXJ@Z
?SetBackgroundImage@_SEAUIWINDOW@@QAEXPADHHHH@Z
?SetCallback@_SEAUIWINDOW@@QAEXIP6AXXZ@Z
?SetForegroundBitmap@_SEAUIWINDOW@@QAEXPADHH@Z
?SetFrameInfo@_SEAUIWINDOW@@QAEXHKHH@Z
?SetImage@_SEAUIWINDOW@@QAEXQADHH@Z
?SetTextBoxLong@_SEAUIWINDOW@@QAEXJ@Z
?SetThreadState@_SEAUIWINDOW@@QAEX_N@Z
?SetWindowLongA@_SEAUIWINDOW@@QAEXJ@Z
?Transform@_SEAUIWINDOW@@QAEXKK@Z
?TurnBkColor@_SEAUIWINDOW@@QAEXPAUHWND__@@KKKHQADHHHHH@Z
?_photo@_SEAUIWINDOW@@QAEXPAUHWND__@@QADHHHH@Z
